; Function Attrs: mustprogress uwtable
define noundef i32 @_ZNK6icu_7716LocalizationInfo14indexForLocaleEPKDs(ptr noundef nonnull align 8 dereferenceable(12) %0, ptr noundef %1) unnamed_addr #3 align 2 {
  %3 = load ptr, ptr %0, align 8, !tbaa !3
  %4 = getelementptr inbounds nuw i8, ptr %3, i64 40
  %5 = load ptr, ptr %4, align 8
  %6 = tail call noundef i32 %5(ptr noundef nonnull align 8 dereferenceable(12) %0)
  %.not1415 = icmp sgt i32 %6, 0
  br i1 %.not1415, label %.lr.ph, label %_ZN6icu_77L5streqEPKDsS1_.exit.thread11

.lr.ph:                                           ; preds = %2
  %.not21 = icmp eq ptr %1, null
  br i1 %.not21, label %.lr.ph.split.us, label %.lr.ph.split

.lr.ph.split.us:                                  ; preds = %.lr.ph, %_ZN6icu_77L5streqEPKDsS1_.exit.thread.us
  %.0716.us = phi i32 [ %12, %_ZN6icu_77L5streqEPKDsS1_.exit.thread.us ], [ 0, %.lr.ph ]
  %7 = load ptr, ptr %0, align 8, !tbaa !3
  %8 = getelementptr inbounds nuw i8, ptr %7, i64 48
  %9 = load ptr, ptr %8, align 8
  %10 = tail call noundef ptr %9(ptr noundef nonnull align 8 dereferenceable(12) %0, i32 noundef %.0716.us)
  %11 = icmp eq ptr %10, null
  br i1 %11, label %_ZN6icu_77L5streqEPKDsS1_.exit.thread11, label %_ZN6icu_77L5streqEPKDsS1_.exit.thread.us

_ZN6icu_77L5streqEPKDsS1_.exit.thread.us:         ; preds = %.lr.ph.split.us
  %12 = add nuw nsw i32 %.0716.us, 1
  %13 = load ptr, ptr %0, align 8, !tbaa !3
  %14 = getelementptr inbounds nuw i8, ptr %13, i64 40
  %15 = load ptr, ptr %14, align 8
  %16 = tail call noundef i32 %15(ptr noundef nonnull align 8 dereferenceable(12) %0)
  %.not14.us = icmp slt i32 %12, %16
  br i1 %.not14.us, label %.lr.ph.split.us, label %_ZN6icu_77L5streqEPKDsS1_.exit.thread11, !llvm.loop !10

.lr.ph.split:                                     ; preds = %.lr.ph, %_ZN6icu_77L5streqEPKDsS1_.exit.thread
  %.0716 = phi i32 [ %24, %_ZN6icu_77L5streqEPKDsS1_.exit.thread ], [ 0, %.lr.ph ]
  %17 = load ptr, ptr %0, align 8, !tbaa !3
  %18 = getelementptr inbounds nuw i8, ptr %17, i64 48
  %19 = load ptr, ptr %18, align 8
  %20 = tail call noundef ptr %19(ptr noundef nonnull align 8 dereferenceable(12) %0, i32 noundef %.0716)
  %21 = icmp eq ptr %20, %1
  br i1 %21, label %_ZN6icu_77L5streqEPKDsS1_.exit.thread11, label %22

22:                                               ; preds = %.lr.ph.split
  %.not22 = icmp eq ptr %20, null
  br i1 %.not22, label %_ZN6icu_77L5streqEPKDsS1_.exit.thread, label %_ZN6icu_77L5streqEPKDsS1_.exit

_ZN6icu_77L5streqEPKDsS1_.exit:                   ; preds = %22
  %23 = tail call i32 @u_strcmp_77(ptr noundef nonnull %1, ptr noundef nonnull %20)
  %.not = icmp eq i32 %23, 0
  br i1 %.not, label %_ZN6icu_77L5streqEPKDsS1_.exit.thread11, label %_ZN6icu_77L5streqEPKDsS1_.exit.thread

_ZN6icu_77L5streqEPKDsS1_.exit.thread:            ; preds = %22, %_ZN6icu_77L5streqEPKDsS1_.exit
  %24 = add nuw nsw i32 %.0716, 1
  %25 = load ptr, ptr %0, align 8, !tbaa !3
  %26 = getelementptr inbounds nuw i8, ptr %25, i64 40
  %27 = load ptr, ptr %26, align 8
  %28 = tail call noundef i32 %27(ptr noundef nonnull align 8 dereferenceable(12) %0)
  %.not14 = icmp slt i32 %24, %28
  br i1 %.not14, label %.lr.ph.split, label %_ZN6icu_77L5streqEPKDsS1_.exit.thread11, !llvm.loop !10

_ZN6icu_77L5streqEPKDsS1_.exit.thread11:          ; preds = %_ZN6icu_77L5streqEPKDsS1_.exit.thread, %_ZN6icu_77L5streqEPKDsS1_.exit, %.lr.ph.split, %_ZN6icu_77L5streqEPKDsS1_.exit.thread.us, %.lr.ph.split.us, %2
  %spec.select = phi i32 [ -1, %2 ], [ %.0716.us, %.lr.ph.split.us ], [ -1, %_ZN6icu_77L5streqEPKDsS1_.exit.thread.us ], [ %.0716, %.lr.ph.split ], [ %.0716, %_ZN6icu_77L5streqEPKDsS1_.exit ], [ -1, %_ZN6icu_77L5streqEPKDsS1_.exit.thread ]
  ret i32 %spec.select
}